target datalayout = "e-m:e-p270:32:32-p271:32:32-p272:64:64-i64:64-i128:128-f80:128-n8:16:32:64-S128"
target triple = "x86_64-pc-linux-gnu"

%struct.FunctionCallInfoBaseData = type { ptr, ptr, ptr, i32, i8, i16, [0 x %struct.NullableDatum] }
%struct.NullableDatum = type { i64, i8 }
%struct.Node = type { i32 }
%struct.SupportRequestSelectivity = type { i32, ptr, i32, ptr, i32, i8, i32, i32, ptr, double }
%struct.SupportRequestCost = type { i32, ptr, i32, ptr, double, double }
%struct.SupportRequestRows = type { i32, ptr, i32, ptr, double }
%struct.FuncExpr = type { %struct.Expr, i32, i32, i8, i8, i32, i32, i32, ptr, i32 }
%struct.Expr = type { i32 }
%struct.Const = type { %struct.Expr, i32, i32, i32, i32, i64, i8, i8, i32 }
%struct.List = type { i32, i32, i32, ptr, [0 x %union.ListCell] }
%union.ListCell = type { ptr }

@cpu_operator_cost = external global double, align 8

; Function Attrs: inlinehint nounwind uwtable
define internal i64 @PointerGetDatum(ptr noundef %0) #2 {
  %2 = alloca ptr, align 8
  store ptr %0, ptr %2, align 8
  %3 = load ptr, ptr %2, align 8
  %4 = ptrtoint ptr %3 to i64
  ret i64 %4
}

; Function Attrs: inlinehint nounwind uwtable
define internal i32 @DatumGetInt32(i64 noundef %0) #2 {
  %2 = alloca i64, align 8
  store i64 %0, ptr %2, align 8
  %3 = load i64, ptr %2, align 8
  %4 = trunc i64 %3 to i32
  ret i32 %4
}

; Function Attrs: inlinehint nounwind uwtable
define internal ptr @list_nth_cell(ptr noundef %0, i32 noundef %1) #2 {
  %3 = alloca ptr, align 8
  %4 = alloca i32, align 4
  store ptr %0, ptr %3, align 8
  store i32 %1, ptr %4, align 4
  %5 = load ptr, ptr %3, align 8
  %6 = getelementptr inbounds nuw %struct.List, ptr %5, i32 0, i32 3
  %7 = load ptr, ptr %6, align 8
  %8 = load i32, ptr %4, align 4
  %9 = sext i32 %8 to i64
  %10 = getelementptr inbounds %union.ListCell, ptr %7, i64 %9
  ret ptr %10
}

; Function Attrs: inlinehint nounwind uwtable
define internal ptr @DatumGetPointer(i64 noundef %0) #2 {
  %2 = alloca i64, align 8
  store i64 %0, ptr %2, align 8
  %3 = load i64, ptr %2, align 8
  %4 = inttoptr i64 %3 to ptr
  ret ptr %4
}

; Function Attrs: nounwind uwtable
define i64 @test_support_func(ptr noundef %0) #0 {
  %2 = alloca ptr, align 8
  %3 = alloca ptr, align 8
  %4 = alloca ptr, align 8
  %5 = alloca ptr, align 8
  %6 = alloca double, align 8
  %7 = alloca ptr, align 8
  %8 = alloca ptr, align 8
  %9 = alloca ptr, align 8
  %10 = alloca ptr, align 8
  %11 = alloca ptr, align 8
  %12 = alloca i32, align 4
  %13 = alloca i32, align 4
  store ptr %0, ptr %2, align 8
  call void @llvm.lifetime.start.p0(i64 8, ptr %3) #13
  %14 = load ptr, ptr %2, align 8
  %15 = getelementptr inbounds nuw %struct.FunctionCallInfoBaseData, ptr %14, i32 0, i32 6
  %16 = getelementptr inbounds [0 x %struct.NullableDatum], ptr %15, i64 0, i64 0
  %17 = getelementptr inbounds nuw %struct.NullableDatum, ptr %16, i32 0, i32 0
  %18 = load i64, ptr %17, align 8
  %19 = call ptr @DatumGetPointer(i64 noundef %18)
  store ptr %19, ptr %3, align 8
  call void @llvm.lifetime.start.p0(i64 8, ptr %4) #13
  store ptr null, ptr %4, align 8
  %20 = load ptr, ptr %3, align 8
  %21 = getelementptr inbounds nuw %struct.Node, ptr %20, i32 0, i32 0
  %22 = load i32, ptr %21, align 4
  %23 = icmp eq i32 %22, 457
  br i1 %23, label %24, label %66

24:                                               ; preds = %1
  call void @llvm.lifetime.start.p0(i64 8, ptr %5) #13
  %25 = load ptr, ptr %3, align 8
  store ptr %25, ptr %5, align 8
  call void @llvm.lifetime.start.p0(i64 8, ptr %6) #13
  %26 = load ptr, ptr %5, align 8
  %27 = getelementptr inbounds nuw %struct.SupportRequestSelectivity, ptr %26, i32 0, i32 5
  %28 = load i8, ptr %27, align 4, !range !3, !noundef !4
  %29 = trunc i8 %28 to i1
  br i1 %29, label %30, label %47

30:                                               ; preds = %24
  %31 = load ptr, ptr %5, align 8
  %32 = getelementptr inbounds nuw %struct.SupportRequestSelectivity, ptr %31, i32 0, i32 1
  %33 = load ptr, ptr %32, align 8
  %34 = load ptr, ptr %5, align 8
  %35 = getelementptr inbounds nuw %struct.SupportRequestSelectivity, ptr %34, i32 0, i32 3
  %36 = load ptr, ptr %35, align 8
  %37 = load ptr, ptr %5, align 8
  %38 = getelementptr inbounds nuw %struct.SupportRequestSelectivity, ptr %37, i32 0, i32 4
  %39 = load i32, ptr %38, align 8
  %40 = load ptr, ptr %5, align 8
  %41 = getelementptr inbounds nuw %struct.SupportRequestSelectivity, ptr %40, i32 0, i32 7
  %42 = load i32, ptr %41, align 4
  %43 = load ptr, ptr %5, align 8
  %44 = getelementptr inbounds nuw %struct.SupportRequestSelectivity, ptr %43, i32 0, i32 8
  %45 = load ptr, ptr %44, align 8
  %46 = call double @join_selectivity(ptr noundef %33, i32 noundef 96, ptr noundef %36, i32 noundef %39, i32 noundef %42, ptr noundef %45)
  store double %46, ptr %6, align 8
  br label %61

47:                                               ; preds = %24
  %48 = load ptr, ptr %5, align 8
  %49 = getelementptr inbounds nuw %struct.SupportRequestSelectivity, ptr %48, i32 0, i32 1
  %50 = load ptr, ptr %49, align 8
  %51 = load ptr, ptr %5, align 8
  %52 = getelementptr inbounds nuw %struct.SupportRequestSelectivity, ptr %51, i32 0, i32 3
  %53 = load ptr, ptr %52, align 8
  %54 = load ptr, ptr %5, align 8
  %55 = getelementptr inbounds nuw %struct.SupportRequestSelectivity, ptr %54, i32 0, i32 4
  %56 = load i32, ptr %55, align 8
  %57 = load ptr, ptr %5, align 8
  %58 = getelementptr inbounds nuw %struct.SupportRequestSelectivity, ptr %57, i32 0, i32 6
  %59 = load i32, ptr %58, align 8
  %60 = call double @restriction_selectivity(ptr noundef %50, i32 noundef 96, ptr noundef %53, i32 noundef %56, i32 noundef %59)
  store double %60, ptr %6, align 8
  br label %61

61:                                               ; preds = %47, %30
  %62 = load double, ptr %6, align 8
  %63 = load ptr, ptr %5, align 8
  %64 = getelementptr inbounds nuw %struct.SupportRequestSelectivity, ptr %63, i32 0, i32 9
  store double %62, ptr %64, align 8
  %65 = load ptr, ptr %5, align 8
  store ptr %65, ptr %4, align 8
  call void @llvm.lifetime.end.p0(i64 8, ptr %6) #13
  call void @llvm.lifetime.end.p0(i64 8, ptr %5) #13
  br label %66

66:                                               ; preds = %61, %1
  %67 = load ptr, ptr %3, align 8
  %68 = getelementptr inbounds nuw %struct.Node, ptr %67, i32 0, i32 0
  %69 = load i32, ptr %68, align 4
  %70 = icmp eq i32 %69, 458
  br i1 %70, label %71, label %80

71:                                               ; preds = %66
  call void @llvm.lifetime.start.p0(i64 8, ptr %7) #13
  %72 = load ptr, ptr %3, align 8
  store ptr %72, ptr %7, align 8
  %73 = load ptr, ptr %7, align 8
  %74 = getelementptr inbounds nuw %struct.SupportRequestCost, ptr %73, i32 0, i32 4
  store double 0.000000e+00, ptr %74, align 8
  %75 = load double, ptr @cpu_operator_cost, align 8
  %76 = fmul double 2.000000e+00, %75
  %77 = load ptr, ptr %7, align 8
  %78 = getelementptr inbounds nuw %struct.SupportRequestCost, ptr %77, i32 0, i32 5
  store double %76, ptr %78, align 8
  %79 = load ptr, ptr %7, align 8
  store ptr %79, ptr %4, align 8
  call void @llvm.lifetime.end.p0(i64 8, ptr %7) #13
  br label %80

80:                                               ; preds = %71, %66
  %81 = load ptr, ptr %3, align 8
  %82 = getelementptr inbounds nuw %struct.Node, ptr %81, i32 0, i32 0
  %83 = load i32, ptr %82, align 4
  %84 = icmp eq i32 %83, 459
  br i1 %84, label %85, label %148

85:                                               ; preds = %80
  call void @llvm.lifetime.start.p0(i64 8, ptr %8) #13
  %86 = load ptr, ptr %3, align 8
  store ptr %86, ptr %8, align 8
  %87 = load ptr, ptr %8, align 8
  %88 = getelementptr inbounds nuw %struct.SupportRequestRows, ptr %87, i32 0, i32 3
  %89 = load ptr, ptr %88, align 8
  %90 = icmp ne ptr %89, null
  br i1 %90, label %91, label %147

91:                                               ; preds = %85
  %92 = load ptr, ptr %8, align 8
  %93 = getelementptr inbounds nuw %struct.SupportRequestRows, ptr %92, i32 0, i32 3
  %94 = load ptr, ptr %93, align 8
  %95 = getelementptr inbounds nuw %struct.Node, ptr %94, i32 0, i32 0
  %96 = load i32, ptr %95, align 4
  %97 = icmp eq i32 %96, 15
  br i1 %97, label %98, label %147

98:                                               ; preds = %91
  call void @llvm.lifetime.start.p0(i64 8, ptr %9) #13
  %99 = load ptr, ptr %8, align 8
  %100 = getelementptr inbounds nuw %struct.SupportRequestRows, ptr %99, i32 0, i32 3
  %101 = load ptr, ptr %100, align 8
  %102 = getelementptr inbounds nuw %struct.FuncExpr, ptr %101, i32 0, i32 8
  %103 = load ptr, ptr %102, align 8
  store ptr %103, ptr %9, align 8
  call void @llvm.lifetime.start.p0(i64 8, ptr %10) #13
  %104 = load ptr, ptr %9, align 8
  %105 = call ptr @list_nth_cell(ptr noundef %104, i32 noundef 0)
  %106 = load ptr, ptr %105, align 8
  store ptr %106, ptr %10, align 8
  call void @llvm.lifetime.start.p0(i64 8, ptr %11) #13
  %107 = load ptr, ptr %9, align 8
  %108 = call ptr @list_nth_cell(ptr noundef %107, i32 noundef 1)
  %109 = load ptr, ptr %108, align 8
  store ptr %109, ptr %11, align 8
  %110 = load ptr, ptr %10, align 8
  %111 = getelementptr inbounds nuw %struct.Node, ptr %110, i32 0, i32 0
  %112 = load i32, ptr %111, align 4
  %113 = icmp eq i32 %112, 7
  br i1 %113, label %114, label %146

114:                                              ; preds = %98
  %115 = load ptr, ptr %10, align 8
  %116 = getelementptr inbounds nuw %struct.Const, ptr %115, i32 0, i32 6
  %117 = load i8, ptr %116, align 8, !range !3, !noundef !4
  %118 = trunc i8 %117 to i1
  br i1 %118, label %146, label %119

119:                                              ; preds = %114
  %120 = load ptr, ptr %11, align 8
  %121 = getelementptr inbounds nuw %struct.Node, ptr %120, i32 0, i32 0
  %122 = load i32, ptr %121, align 4
  %123 = icmp eq i32 %122, 7
  br i1 %123, label %124, label %146

124:                                              ; preds = %119
  %125 = load ptr, ptr %11, align 8
  %126 = getelementptr inbounds nuw %struct.Const, ptr %125, i32 0, i32 6
  %127 = load i8, ptr %126, align 8, !range !3, !noundef !4
  %128 = trunc i8 %127 to i1
  br i1 %128, label %146, label %129

129:                                              ; preds = %124
  call void @llvm.lifetime.start.p0(i64 4, ptr %12) #13
  %130 = load ptr, ptr %10, align 8
  %131 = getelementptr inbounds nuw %struct.Const, ptr %130, i32 0, i32 5
  %132 = load i64, ptr %131, align 8
  %133 = call i32 @DatumGetInt32(i64 noundef %132)
  store i32 %133, ptr %12, align 4
  call void @llvm.lifetime.start.p0(i64 4, ptr %13) #13
  %134 = load ptr, ptr %11, align 8
  %135 = getelementptr inbounds nuw %struct.Const, ptr %134, i32 0, i32 5
  %136 = load i64, ptr %135, align 8
  %137 = call i32 @DatumGetInt32(i64 noundef %136)
  store i32 %137, ptr %13, align 4
  %138 = load i32, ptr %13, align 4
  %139 = load i32, ptr %12, align 4
  %140 = sub i32 %138, %139
  %141 = add i32 %140, 1
  %142 = sitofp i32 %141 to double
  %143 = load ptr, ptr %8, align 8
  %144 = getelementptr inbounds nuw %struct.SupportRequestRows, ptr %143, i32 0, i32 4
  store double %142, ptr %144, align 8
  %145 = load ptr, ptr %8, align 8
  store ptr %145, ptr %4, align 8
  call void @llvm.lifetime.end.p0(i64 4, ptr %13) #13
  call void @llvm.lifetime.end.p0(i64 4, ptr %12) #13
  br label %146

146:                                              ; preds = %129, %124, %119, %114, %98
  call void @llvm.lifetime.end.p0(i64 8, ptr %11) #13
  call void @llvm.lifetime.end.p0(i64 8, ptr %10) #13
  call void @llvm.lifetime.end.p0(i64 8, ptr %9) #13
  br label %147

147:                                              ; preds = %146, %91, %85
  call void @llvm.lifetime.end.p0(i64 8, ptr %8) #13
  br label %148

148:                                              ; preds = %147, %80
  %149 = load ptr, ptr %4, align 8
  %150 = call i64 @PointerGetDatum(ptr noundef %149)
  call void @llvm.lifetime.end.p0(i64 8, ptr %4) #13
  call void @llvm.lifetime.end.p0(i64 8, ptr %3) #13
  ret i64 %150
}