; Function Attrs: nounwind uwtable
define noundef i64 @test_support_func(ptr noundef readonly captures(none) %0) local_unnamed_addr #1 {
  %2 = getelementptr inbounds nuw i8, ptr %0, i64 32
  %3 = load i64, ptr %2, align 8
  %4 = inttoptr i64 %3 to ptr
  %5 = load i32, ptr %4, align 4
  %6 = icmp eq i32 %5, 457
  br i1 %6, label %7, label %29

7:                                                ; preds = %1
  %8 = getelementptr inbounds nuw i8, ptr %4, i64 36
  %9 = load i8, ptr %8, align 4, !range !6, !noundef !7
  %10 = trunc nuw i8 %9 to i1
  %11 = getelementptr inbounds nuw i8, ptr %4, i64 8
  %12 = load ptr, ptr %11, align 8
  %13 = getelementptr inbounds nuw i8, ptr %4, i64 24
  %14 = load ptr, ptr %13, align 8
  %15 = getelementptr inbounds nuw i8, ptr %4, i64 32
  %16 = load i32, ptr %15, align 8
  br i1 %10, label %17, label %23

17:                                               ; preds = %7
  %18 = getelementptr inbounds nuw i8, ptr %4, i64 44
  %19 = load i32, ptr %18, align 4
  %20 = getelementptr inbounds nuw i8, ptr %4, i64 48
  %21 = load ptr, ptr %20, align 8
  %22 = tail call double @join_selectivity(ptr noundef %12, i32 noundef 96, ptr noundef %14, i32 noundef %16, i32 noundef %19, ptr noundef %21) #18
  br label %27

23:                                               ; preds = %7
  %24 = getelementptr inbounds nuw i8, ptr %4, i64 40
  %25 = load i32, ptr %24, align 8
  %26 = tail call double @restriction_selectivity(ptr noundef %12, i32 noundef 96, ptr noundef %14, i32 noundef %16, i32 noundef %25) #18
  br label %27

27:                                               ; preds = %23, %17
  %.038 = phi double [ %22, %17 ], [ %26, %23 ]
  %28 = getelementptr inbounds nuw i8, ptr %4, i64 56
  store double %.038, ptr %28, align 8
  %.pr = load i32, ptr %4, align 4
  br label %29

29:                                               ; preds = %27, %1
  %30 = phi i32 [ %.pr, %27 ], [ %5, %1 ]
  %.0 = phi ptr [ %4, %27 ], [ null, %1 ]
  switch i32 %30, label %70 [
    i32 458, label %.thread
    i32 459, label %34
  ]

.thread:                                          ; preds = %29
  %31 = getelementptr inbounds nuw i8, ptr %4, i64 32
  store double 0.000000e+00, ptr %31, align 8
  %32 = load double, ptr @cpu_operator_cost, align 8
  %33 = fmul double %32, 2.000000e+00
  br label %.sink.split

34:                                               ; preds = %29
  %35 = getelementptr inbounds nuw i8, ptr %4, i64 24
  %36 = load ptr, ptr %35, align 8
  %.not = icmp eq ptr %36, null
  br i1 %.not, label %70, label %37

37:                                               ; preds = %34
  %38 = load i32, ptr %36, align 4
  %39 = icmp eq i32 %38, 15
  br i1 %39, label %40, label %70

40:                                               ; preds = %37
  %41 = getelementptr inbounds nuw i8, ptr %36, i64 32
  %42 = load ptr, ptr %41, align 8
  %43 = getelementptr i8, ptr %42, i64 16
  %.val = load ptr, ptr %43, align 8
  %44 = load ptr, ptr %.val, align 8
  %45 = getelementptr inbounds nuw i8, ptr %.val, i64 8
  %46 = load ptr, ptr %45, align 8
  %47 = load i32, ptr %44, align 4
  %48 = icmp eq i32 %47, 7
  br i1 %48, label %49, label %70

49:                                               ; preds = %40
  %50 = getelementptr inbounds nuw i8, ptr %44, i64 32
  %51 = load i8, ptr %50, align 8, !range !6, !noundef !7
  %52 = trunc nuw i8 %51 to i1
  br i1 %52, label %70, label %53

53:                                               ; preds = %49
  %54 = load i32, ptr %46, align 4
  %55 = icmp eq i32 %54, 7
  br i1 %55, label %56, label %70

56:                                               ; preds = %53
  %57 = getelementptr inbounds nuw i8, ptr %46, i64 32
  %58 = load i8, ptr %57, align 8, !range !6, !noundef !7
  %59 = trunc nuw i8 %58 to i1
  br i1 %59, label %70, label %60

60:                                               ; preds = %56
  %61 = getelementptr inbounds nuw i8, ptr %44, i64 24
  %62 = load i64, ptr %61, align 8
  %63 = trunc i64 %62 to i32
  %64 = getelementptr inbounds nuw i8, ptr %46, i64 24
  %65 = load i64, ptr %64, align 8
  %66 = trunc i64 %65 to i32
  %reass.sub = sub i32 %66, %63
  %67 = add i32 %reass.sub, 1
  %68 = sitofp i32 %67 to double
  br label %.sink.split

.sink.split:                                      ; preds = %60, %.thread
  %.sink43 = phi i64 [ 40, %.thread ], [ 32, %60 ]
  %.sink = phi double [ %33, %.thread ], [ %68, %60 ]
  %69 = getelementptr inbounds nuw i8, ptr %4, i64 %.sink43
  store double %.sink, ptr %69, align 8
  br label %70

70:                                               ; preds = %.sink.split, %29, %34, %37, %56, %53, %49, %40
  %.2 = phi ptr [ %.0, %37 ], [ %.0, %34 ], [ %.0, %49 ], [ %.0, %56 ], [ %.0, %53 ], [ %.0, %40 ], [ %.0, %29 ], [ %4, %.sink.split ]
  %71 = ptrtoint ptr %.2 to i64
  ret i64 %71
}